target datalayout = "e-m:e-p270:32:32-p271:32:32-p272:64:64-i64:64-i128:128-f80:128-n8:16:32:64-S128"
target triple = "x86_64-pc-linux-gnu"

%struct.SDL_DriverSwitch_Context = type <{ ptr, ptr, i8, i8, i8, i8, i32, i8, [3 x i8], i32, i32, i8, i8, [6 x i8], i8, [3 x i8], i32, i8, i8, %struct.SwitchCommonOutputPacket_t, [64 x i8], i8, [7 x i8], i64, i8, i8, [2 x i8], i32, i8, i8, i8, [5 x i8], i64, i64, i64, i32, [4 x i8], i64, i64, i8, %struct.SwitchInputOnlyControllerStatePacket_t, %struct.SwitchSimpleStatePacket_t, %struct.SwitchStatePacket_t, i8, [2 x %struct.StickCalibrationData], [2 x %struct.StickExtents], [2 x %struct.StickExtents], %struct.IMUScaleData, [4 x i8] }>
%struct.SwitchCommonOutputPacket_t = type { i8, i8, [2 x %struct.SwitchRumbleData_t] }
%struct.SwitchRumbleData_t = type { [4 x i8] }
%struct.SwitchInputOnlyControllerStatePacket_t = type { [2 x i8], i8, [2 x i8], [2 x i8] }
%struct.SwitchSimpleStatePacket_t = type <{ [2 x i8], i8, [2 x i16], [2 x i16] }>
%struct.SwitchStatePacket_t = type { %struct.SwitchControllerStatePacket_t, [3 x %struct.anon] }
%struct.SwitchControllerStatePacket_t = type { i8, i8, [3 x i8], [3 x i8], [3 x i8], i8 }
%struct.anon = type { i16, i16, i16, i16, i16, i16 }
%struct.StickCalibrationData = type { [2 x %struct.anon.0] }
%struct.anon.0 = type { i16, i16, i16 }
%struct.StickExtents = type { [2 x %struct.anon.1] }
%struct.anon.1 = type { i16, i16 }
%struct.IMUScaleData = type { float, float, float, float, float, float }

; Function Attrs: nounwind uwtable
define internal void @UpdateSlotLED(ptr noundef %0) #0 {
  %2 = alloca ptr, align 8
  %3 = alloca i8, align 1
  store ptr %0, ptr %2, align 8
  %4 = load ptr, ptr %2, align 8
  %5 = getelementptr inbounds nuw %struct.SDL_DriverSwitch_Context, ptr %4, i32 0, i32 2
  %6 = load i8, ptr %5, align 8, !range !3, !noundef !4
  %7 = trunc i8 %6 to i1
  br i1 %7, label %28, label %8

8:                                                ; preds = %1
  call void @llvm.lifetime.start.p0(i64 1, ptr %3) #6
  store i8 0, ptr %3, align 1
  %9 = load ptr, ptr %2, align 8
  %10 = getelementptr inbounds nuw %struct.SDL_DriverSwitch_Context, ptr %9, i32 0, i32 4
  %11 = load i8, ptr %10, align 2, !range !3, !noundef !4
  %12 = trunc i8 %11 to i1
  br i1 %12, label %13, label %25

13:                                               ; preds = %8
  %14 = load ptr, ptr %2, align 8
  %15 = getelementptr inbounds nuw %struct.SDL_DriverSwitch_Context, ptr %14, i32 0, i32 6
  %16 = load i32, ptr %15, align 4
  %17 = icmp sge i32 %16, 0
  br i1 %17, label %18, label %25

18:                                               ; preds = %13
  %19 = load ptr, ptr %2, align 8
  %20 = getelementptr inbounds nuw %struct.SDL_DriverSwitch_Context, ptr %19, i32 0, i32 6
  %21 = load i32, ptr %20, align 4
  %22 = srem i32 %21, 4
  %23 = shl i32 1, %22
  %24 = trunc i32 %23 to i8
  store i8 %24, ptr %3, align 1
  br label %25

25:                                               ; preds = %18, %13, %8
  %26 = load ptr, ptr %2, align 8
  %27 = call zeroext i1 @WriteSubcommand(ptr noundef %26, i32 noundef 48, ptr noundef %3, i8 noundef zeroext 1, ptr noundef null)
  call void @llvm.lifetime.end.p0(i64 1, ptr %3) #6
  br label %28

28:                                               ; preds = %25, %1
  ret void
}

; Function Attrs: nounwind uwtable
define internal void @SDL_PlayerLEDHintChanged(ptr noundef %0, ptr noundef %1, ptr noundef %2, ptr noundef %3) #0 {
  %5 = alloca ptr, align 8
  %6 = alloca ptr, align 8
  %7 = alloca ptr, align 8
  %8 = alloca ptr, align 8
  %9 = alloca ptr, align 8
  %10 = alloca i8, align 1
  store ptr %0, ptr %5, align 8
  store ptr %1, ptr %6, align 8
  store ptr %2, ptr %7, align 8
  store ptr %3, ptr %8, align 8
  call void @llvm.lifetime.start.p0(i64 8, ptr %9) #6
  %11 = load ptr, ptr %5, align 8
  store ptr %11, ptr %9, align 8
  call void @llvm.lifetime.start.p0(i64 1, ptr %10) #6
  %12 = load ptr, ptr %8, align 8
  %13 = call zeroext i1 @SDL_GetStringBoolean(ptr noundef %12, i1 noundef zeroext true)
  %14 = zext i1 %13 to i8
  store i8 %14, ptr %10, align 1
  %15 = load i8, ptr %10, align 1, !range !3, !noundef !4
  %16 = trunc i8 %15 to i1
  %17 = zext i1 %16 to i32
  %18 = load ptr, ptr %9, align 8
  %19 = getelementptr inbounds nuw %struct.SDL_DriverSwitch_Context, ptr %18, i32 0, i32 4
  %20 = load i8, ptr %19, align 2, !range !3, !noundef !4
  %21 = trunc i8 %20 to i1
  %22 = zext i1 %21 to i32
  %23 = icmp ne i32 %17, %22
  br i1 %23, label %24, label %34

24:                                               ; preds = %4
  %25 = load i8, ptr %10, align 1, !range !3, !noundef !4
  %26 = trunc i8 %25 to i1
  %27 = load ptr, ptr %9, align 8
  %28 = getelementptr inbounds nuw %struct.SDL_DriverSwitch_Context, ptr %27, i32 0, i32 4
  %29 = zext i1 %26 to i8
  store i8 %29, ptr %28, align 2
  %30 = load ptr, ptr %9, align 8
  call void @UpdateSlotLED(ptr noundef %30)
  %31 = load ptr, ptr %9, align 8
  %32 = getelementptr inbounds nuw %struct.SDL_DriverSwitch_Context, ptr %31, i32 0, i32 0
  %33 = load ptr, ptr %32, align 8
  call void @HIDAPI_UpdateDeviceProperties(ptr noundef %33)
  br label %34

34:                                               ; preds = %24, %4
  call void @llvm.lifetime.end.p0(i64 1, ptr %10) #6
  call void @llvm.lifetime.end.p0(i64 8, ptr %9) #6
  ret void
}