; Function Attrs: nounwind uwtable
define internal void @SDL_PlayerLEDHintChanged(ptr noundef %0, ptr readnone captures(none) %1, ptr readnone captures(none) %2, ptr noundef %3) #0 {
  %5 = alloca i8, align 1
  %6 = tail call zeroext i1 @SDL_GetStringBoolean(ptr noundef %3, i1 noundef zeroext true) #9
  %7 = getelementptr inbounds nuw i8, ptr %0, i64 18
  %8 = load i8, ptr %7, align 2, !range !3, !noundef !4
  %9 = zext i1 %6 to i8
  %.not = icmp eq i8 %8, %9
  br i1 %.not, label %26, label %10

10:                                               ; preds = %4
  store i8 %9, ptr %7, align 2
  %11 = getelementptr inbounds nuw i8, ptr %0, i64 16
  %12 = load i8, ptr %11, align 8, !range !3, !noundef !4
  %13 = trunc nuw i8 %12 to i1
  br i1 %13, label %UpdateSlotLED.exit, label %14

14:                                               ; preds = %10
  call void @llvm.lifetime.start.p0(i64 1, ptr nonnull %5) #9
  store i8 0, ptr %5, align 1
  br i1 %6, label %15, label %23

15:                                               ; preds = %14
  %16 = getelementptr inbounds nuw i8, ptr %0, i64 20
  %17 = load i32, ptr %16, align 4
  %18 = icmp sgt i32 %17, -1
  br i1 %18, label %19, label %23

19:                                               ; preds = %15
  %20 = and i32 %17, 3
  %21 = shl nuw nsw i32 1, %20
  %22 = trunc nuw nsw i32 %21 to i8
  store i8 %22, ptr %5, align 1
  br label %23

23:                                               ; preds = %19, %15, %14
  %24 = call fastcc zeroext i1 @WriteSubcommand(ptr noundef nonnull %0, i32 noundef 48, ptr noundef nonnull %5, i8 noundef zeroext 1, ptr noundef null)
  call void @llvm.lifetime.end.p0(i64 1, ptr nonnull %5) #9
  br label %UpdateSlotLED.exit

UpdateSlotLED.exit:                               ; preds = %10, %23
  %25 = load ptr, ptr %0, align 8
  call void @HIDAPI_UpdateDeviceProperties(ptr noundef %25) #9
  br label %26

26:                                               ; preds = %UpdateSlotLED.exit, %4
  ret void
}